; Function Attrs: nounwind uwtable
define dso_local ptr @makeStringInfoExt(i32 noundef %0) local_unnamed_addr #0 {
  %2 = tail call ptr @palloc(i64 noundef 24) #12
  %3 = sext i32 %0 to i64
  %4 = tail call ptr @palloc(i64 noundef %3) #12
  store ptr %4, ptr %2, align 8
  %5 = getelementptr inbounds nuw i8, ptr %2, i64 12
  store i32 %0, ptr %5, align 4
  store i8 0, ptr %4, align 1
  %6 = getelementptr inbounds nuw i8, ptr %2, i64 8
  store i32 0, ptr %6, align 8
  %7 = getelementptr inbounds nuw i8, ptr %2, i64 16
  store i32 0, ptr %7, align 8
  ret ptr %2
}